target datalayout = "e-m:e-p270:32:32-p271:32:32-p272:64:64-i64:64-i128:128-f80:128-n8:16:32:64-S128"
target triple = "x86_64-pc-linux-gnu"

@.str.62 = private unnamed_addr constant [5 x i8] c"%s%s\00", align 1
@.str.63 = private unnamed_addr constant [4 x i8] c"NaN\00", align 1
@.str.64 = private unnamed_addr constant [10 x i8] c"-Infinity\00", align 1
@.str.65 = private unnamed_addr constant [9 x i8] c"Infinity\00", align 1
@.str.66 = private unnamed_addr constant [8 x i8] c"%.15g%s\00", align 1

; Function Attrs: nounwind uwtable
define internal void @sprintf_double_value(ptr noundef %0, double noundef %1, ptr noundef %2) #0 {
  %4 = alloca ptr, align 8
  %5 = alloca double, align 8
  %6 = alloca ptr, align 8
  store ptr %0, ptr %4, align 8
  store double %1, ptr %5, align 8
  store ptr %2, ptr %6, align 8
  %7 = load double, ptr %5, align 8
  %8 = call i1 @llvm.is.fpclass.f64(double %7, i32 3)
  br i1 %8, label %9, label %13

9:                                                ; preds = %3
  %10 = load ptr, ptr %4, align 8
  %11 = load ptr, ptr %6, align 8
  %12 = call i32 (ptr, ptr, ...) @pg_sprintf(ptr noundef %10, ptr noundef @.str.62, ptr noundef @.str.63, ptr noundef %11)
  br label %34

13:                                               ; preds = %3
  %14 = load double, ptr %5, align 8
  %15 = call i1 @llvm.is.fpclass.f64(double %14, i32 516)
  br i1 %15, label %16, label %28

16:                                               ; preds = %13
  %17 = load double, ptr %5, align 8
  %18 = fcmp olt double %17, 0.000000e+00
  br i1 %18, label %19, label %23

19:                                               ; preds = %16
  %20 = load ptr, ptr %4, align 8
  %21 = load ptr, ptr %6, align 8
  %22 = call i32 (ptr, ptr, ...) @pg_sprintf(ptr noundef %20, ptr noundef @.str.62, ptr noundef @.str.64, ptr noundef %21)
  br label %27

23:                                               ; preds = %16
  %24 = load ptr, ptr %4, align 8
  %25 = load ptr, ptr %6, align 8
  %26 = call i32 (ptr, ptr, ...) @pg_sprintf(ptr noundef %24, ptr noundef @.str.62, ptr noundef @.str.65, ptr noundef %25)
  br label %27

27:                                               ; preds = %23, %19
  br label %33

28:                                               ; preds = %13
  %29 = load ptr, ptr %4, align 8
  %30 = load double, ptr %5, align 8
  %31 = load ptr, ptr %6, align 8
  %32 = call i32 (ptr, ptr, ...) @pg_sprintf(ptr noundef %29, ptr noundef @.str.66, double noundef %30, ptr noundef %31)
  br label %33

33:                                               ; preds = %28, %27
  br label %34

34:                                               ; preds = %33, %9
  ret void
}